; Function Attrs: mustprogress uwtable
define hidden noundef ptr @_ZN13sexpr_manager10mk_numeralERK8rationaljj(ptr noundef nonnull align 8 dereferenceable(528) %0, ptr noundef nonnull align 8 dereferenceable(32) %1, i32 noundef %2, i32 noundef %3) local_unnamed_addr #7 align 2 {
  %5 = tail call noundef ptr @_ZN22small_object_allocator8allocateEm(ptr noundef nonnull align 8 dereferenceable(520) %0, i64 noundef 48)
  store i32 1, ptr %5, align 4, !tbaa !3
  %6 = getelementptr inbounds nuw i8, ptr %5, i64 4
  store i32 0, ptr %6, align 4, !tbaa !9
  %7 = getelementptr inbounds nuw i8, ptr %5, i64 8
  store i32 %2, ptr %7, align 4, !tbaa !10
  %8 = getelementptr inbounds nuw i8, ptr %5, i64 12
  store i32 %3, ptr %8, align 4, !tbaa !11
  %9 = getelementptr inbounds nuw i8, ptr %5, i64 16
  store i32 0, ptr %9, align 8, !tbaa !45
  %10 = getelementptr inbounds nuw i8, ptr %5, i64 20
  %11 = load i8, ptr %10, align 4
  %12 = and i8 %11, -4
  store i8 %12, ptr %10, align 4
  %13 = getelementptr inbounds nuw i8, ptr %5, i64 24
  store ptr null, ptr %13, align 8, !tbaa !46
  %14 = getelementptr inbounds nuw i8, ptr %5, i64 32
  store i32 1, ptr %14, align 8, !tbaa !45
  %15 = getelementptr inbounds nuw i8, ptr %5, i64 36
  %16 = load i8, ptr %15, align 4
  %17 = and i8 %16, -4
  store i8 %17, ptr %15, align 4
  %18 = getelementptr inbounds nuw i8, ptr %5, i64 40
  store ptr null, ptr %18, align 8, !tbaa !46
  %19 = load ptr, ptr @_ZN8rational13g_mpq_managerE, align 8, !tbaa !26
  %20 = getelementptr inbounds nuw i8, ptr %1, i64 4
  %21 = load i8, ptr %20, align 4
  %22 = and i8 %21, 1
  %23 = icmp eq i8 %22, 0
  br i1 %23, label %24, label %26

24:                                               ; preds = %4
  %25 = load i32, ptr %1, align 8, !tbaa !45
  store i32 %25, ptr %9, align 8, !tbaa !45
  store i8 %12, ptr %10, align 4
  br label %_ZN11mpq_managerILb1EE3setER3mpzRKS1_.exit.i.i.i

26:                                               ; preds = %4
  tail call void @_ZN11mpz_managerILb1EE7big_setER3mpzRKS1_(ptr noundef nonnull align 8 dereferenceable(728) %19, ptr noundef nonnull align 8 dereferenceable(32) %9, ptr noundef nonnull align 8 dereferenceable(32) %1)
  br label %_ZN11mpq_managerILb1EE3setER3mpzRKS1_.exit.i.i.i

_ZN11mpq_managerILb1EE3setER3mpzRKS1_.exit.i.i.i: ; preds = %26, %24
  %27 = getelementptr inbounds nuw i8, ptr %1, i64 16
  %28 = getelementptr inbounds nuw i8, ptr %1, i64 20
  %29 = load i8, ptr %28, align 4
  %30 = and i8 %29, 1
  %31 = icmp eq i8 %30, 0
  br i1 %31, label %32, label %36

32:                                               ; preds = %_ZN11mpq_managerILb1EE3setER3mpzRKS1_.exit.i.i.i
  %33 = load i32, ptr %27, align 8, !tbaa !45
  store i32 %33, ptr %14, align 8, !tbaa !45
  %34 = load i8, ptr %15, align 4
  %35 = and i8 %34, -2
  store i8 %35, ptr %15, align 4
  br label %_ZN13sexpr_numeralC2ERK8rationaljj.exit

36:                                               ; preds = %_ZN11mpq_managerILb1EE3setER3mpzRKS1_.exit.i.i.i
  tail call void @_ZN11mpz_managerILb1EE7big_setER3mpzRKS1_(ptr noundef nonnull align 8 dereferenceable(728) %19, ptr noundef nonnull align 8 dereferenceable(16) %14, ptr noundef nonnull align 8 dereferenceable(16) %27)
  br label %_ZN13sexpr_numeralC2ERK8rationaljj.exit

_ZN13sexpr_numeralC2ERK8rationaljj.exit:          ; preds = %32, %36
  ret ptr %5
}